target datalayout = "e-m:e-p270:32:32-p271:32:32-p272:64:64-i64:64-i128:128-f80:128-n8:16:32:64-S128"
target triple = "x86_64-pc-linux-gnu"

; Function Attrs: inlinehint mustprogress nounwind uwtable
define linkonce_odr noundef nonnull align 8 dereferenceable(8) ptr @_ZSt3minImERKT_S2_S2_(ptr noundef nonnull align 8 dereferenceable(8) %0, ptr noundef nonnull align 8 dereferenceable(8) %1) #5 comdat {
  %3 = alloca ptr, align 8
  %4 = alloca ptr, align 8
  %5 = alloca ptr, align 8
  store ptr %0, ptr %4, align 8, !tbaa !133
  store ptr %1, ptr %5, align 8, !tbaa !133
  %6 = load ptr, ptr %5, align 8, !tbaa !133
  %7 = load i64, ptr %6, align 8, !tbaa !115
  %8 = load ptr, ptr %4, align 8, !tbaa !133
  %9 = load i64, ptr %8, align 8, !tbaa !115
  %10 = icmp ult i64 %7, %9
  br i1 %10, label %11, label %13

11:                                               ; preds = %2
  %12 = load ptr, ptr %5, align 8, !tbaa !133
  store ptr %12, ptr %3, align 8
  br label %15

13:                                               ; preds = %2
  %14 = load ptr, ptr %4, align 8, !tbaa !133
  store ptr %14, ptr %3, align 8
  br label %15

15:                                               ; preds = %13, %11
  %16 = load ptr, ptr %3, align 8
  ret ptr %16
}

; Function Attrs: mustprogress uwtable
define void @_ZN6htif_t11clear_chunkEmm(ptr noundef nonnull align 8 dereferenceable(712) %0, i64 noundef %1, i64 noundef %2) unnamed_addr #4 align 2 {
  %4 = alloca ptr, align 8
  %5 = alloca i64, align 8
  %6 = alloca i64, align 8
  %7 = alloca ptr, align 8
  %8 = alloca i64, align 8
  %9 = alloca i64, align 8
  %10 = alloca i64, align 8
  %11 = alloca i64, align 8
  store ptr %0, ptr %4, align 8, !tbaa !3
  store i64 %1, ptr %5, align 8, !tbaa !115
  store i64 %2, ptr %6, align 8, !tbaa !115
  %12 = load ptr, ptr %4, align 8
  %13 = load ptr, ptr %12, align 8, !tbaa !8
  %14 = getelementptr inbounds ptr, ptr %13, i64 4
  %15 = load ptr, ptr %14, align 8
  %16 = call noundef i64 %15(ptr noundef nonnull align 8 dereferenceable(712) %12)
  %17 = call ptr @llvm.stacksave.p0()
  store ptr %17, ptr %7, align 8
  %18 = alloca i8, i64 %16, align 16
  store i64 %16, ptr %8, align 8
  %19 = load ptr, ptr %12, align 8, !tbaa !8
  %20 = getelementptr inbounds ptr, ptr %19, i64 4
  %21 = load ptr, ptr %20, align 8
  %22 = call noundef i64 %21(ptr noundef nonnull align 8 dereferenceable(712) %12)
  call void @llvm.memset.p0.i64(ptr align 16 %18, i8 0, i64 %22, i1 false)
  call void @llvm.lifetime.start.p0(i64 8, ptr %9) #3
  store i64 0, ptr %9, align 8, !tbaa !115
  br label %23

23:                                               ; preds = %44, %3
  %24 = load i64, ptr %9, align 8, !tbaa !115
  %25 = load i64, ptr %6, align 8, !tbaa !115
  %26 = icmp ult i64 %24, %25
  br i1 %26, label %28, label %27

27:                                               ; preds = %23
  call void @llvm.lifetime.end.p0(i64 8, ptr %9) #3
  br label %51

28:                                               ; preds = %23
  %29 = load i64, ptr %5, align 8, !tbaa !115
  %30 = load i64, ptr %9, align 8, !tbaa !115
  %31 = add i64 %29, %30
  call void @llvm.lifetime.start.p0(i64 8, ptr %10) #3
  %32 = load i64, ptr %6, align 8, !tbaa !115
  %33 = load i64, ptr %9, align 8, !tbaa !115
  %34 = sub i64 %32, %33
  store i64 %34, ptr %10, align 8, !tbaa !115
  call void @llvm.lifetime.start.p0(i64 8, ptr %11) #3
  %35 = load ptr, ptr %12, align 8, !tbaa !8
  %36 = getelementptr inbounds ptr, ptr %35, i64 4
  %37 = load ptr, ptr %36, align 8
  %38 = call noundef i64 %37(ptr noundef nonnull align 8 dereferenceable(712) %12)
  store i64 %38, ptr %11, align 8, !tbaa !115
  %39 = call noundef nonnull align 8 dereferenceable(8) ptr @_ZSt3minImERKT_S2_S2_(ptr noundef nonnull align 8 dereferenceable(8) %10, ptr noundef nonnull align 8 dereferenceable(8) %11)
  %40 = load i64, ptr %39, align 8, !tbaa !115
  %41 = load ptr, ptr %12, align 8, !tbaa !8
  %42 = getelementptr inbounds ptr, ptr %41, i64 1
  %43 = load ptr, ptr %42, align 8
  call void %43(ptr noundef nonnull align 8 dereferenceable(712) %12, i64 noundef %31, i64 noundef %40, ptr noundef %18)
  call void @llvm.lifetime.end.p0(i64 8, ptr %11) #3
  call void @llvm.lifetime.end.p0(i64 8, ptr %10) #3
  br label %44

44:                                               ; preds = %28
  %45 = load ptr, ptr %12, align 8, !tbaa !8
  %46 = getelementptr inbounds ptr, ptr %45, i64 4
  %47 = load ptr, ptr %46, align 8
  %48 = call noundef i64 %47(ptr noundef nonnull align 8 dereferenceable(712) %12)
  %49 = load i64, ptr %9, align 8, !tbaa !115
  %50 = add i64 %49, %48
  store i64 %50, ptr %9, align 8, !tbaa !115
  br label %23, !llvm.loop !192

51:                                               ; preds = %27
  %52 = load ptr, ptr %7, align 8
  call void @llvm.stackrestore.p0(ptr %52)
  ret void
}