; Function Attrs: mustprogress uwtable
define void @_ZN6htif_t11clear_chunkEmm(ptr noundef nonnull align 8 dereferenceable(712) %0, i64 noundef %1, i64 noundef %2) unnamed_addr #3 align 2 {
  %4 = load ptr, ptr %0, align 8, !tbaa !3
  %5 = getelementptr inbounds nuw i8, ptr %4, i64 32
  %6 = load ptr, ptr %5, align 8
  %7 = tail call noundef i64 %6(ptr noundef nonnull align 8 dereferenceable(712) %0)
  %8 = alloca i8, i64 %7, align 16
  %9 = load ptr, ptr %0, align 8, !tbaa !3
  %10 = getelementptr inbounds nuw i8, ptr %9, i64 32
  %11 = load ptr, ptr %10, align 8
  %12 = tail call noundef i64 %11(ptr noundef nonnull align 8 dereferenceable(712) %0)
  call void @llvm.memset.p0.i64(ptr nonnull align 16 %8, i8 0, i64 %12, i1 false)
  %.not = icmp eq i64 %2, 0
  br i1 %.not, label %._crit_edge, label %.lr.ph

._crit_edge:                                      ; preds = %.lr.ph, %3
  ret void

.lr.ph:                                           ; preds = %3, %.lr.ph
  %.012 = phi i64 [ %26, %.lr.ph ], [ 0, %3 ]
  %13 = add i64 %.012, %1
  %14 = sub nuw i64 %2, %.012
  %15 = load ptr, ptr %0, align 8, !tbaa !3
  %16 = getelementptr inbounds nuw i8, ptr %15, i64 32
  %17 = load ptr, ptr %16, align 8
  %18 = call noundef i64 %17(ptr noundef nonnull align 8 dereferenceable(712) %0)
  %.sroa.speculated = call i64 @llvm.umin.i64(i64 %18, i64 %14)
  %19 = load ptr, ptr %0, align 8, !tbaa !3
  %20 = getelementptr inbounds nuw i8, ptr %19, i64 8
  %21 = load ptr, ptr %20, align 8
  call void %21(ptr noundef nonnull align 8 dereferenceable(712) %0, i64 noundef %13, i64 noundef %.sroa.speculated, ptr noundef nonnull %8)
  %22 = load ptr, ptr %0, align 8, !tbaa !3
  %23 = getelementptr inbounds nuw i8, ptr %22, i64 32
  %24 = load ptr, ptr %23, align 8
  %25 = call noundef i64 %24(ptr noundef nonnull align 8 dereferenceable(712) %0)
  %26 = add i64 %25, %.012
  %27 = icmp ult i64 %26, %2
  br i1 %27, label %.lr.ph, label %._crit_edge, !llvm.loop !166
}